; Function Attrs: nounwind uwtable
define noundef ptr @Aig_ObjCreateCo(ptr noundef %0, ptr noundef %1) local_unnamed_addr #0 {
  %3 = getelementptr inbounds nuw i8, ptr %0, i64 272
  %4 = load ptr, ptr %3, align 8, !tbaa !3
  %5 = tail call ptr @Aig_MmFixedEntryFetch(ptr noundef %4) #11
  tail call void @llvm.memset.p0.i64(ptr noundef nonnull align 8 dereferenceable(48) %5, i8 0, i64 48, i1 false)
  %6 = getelementptr inbounds nuw i8, ptr %0, i64 32
  %7 = load ptr, ptr %6, align 8, !tbaa !21
  %8 = getelementptr i8, ptr %7, i64 4
  %.val.i = load i32, ptr %8, align 4, !tbaa !22
  %9 = getelementptr inbounds nuw i8, ptr %5, i64 36
  store i32 %.val.i, ptr %9, align 4, !tbaa !24
  %10 = load i32, ptr %7, align 8, !tbaa !25
  %11 = icmp eq i32 %.val.i, %10
  br i1 %11, label %12, label %.Vec_PtrGrow.exit11_crit_edge.i.i

.Vec_PtrGrow.exit11_crit_edge.i.i:                ; preds = %2
  %.phi.trans.insert.i.i = getelementptr inbounds nuw i8, ptr %7, i64 8
  %.pre.i.i = load ptr, ptr %.phi.trans.insert.i.i, align 8, !tbaa !26
  br label %Aig_ManFetchMemory.exit

12:                                               ; preds = %2
  %13 = icmp slt i32 %.val.i, 16
  br i1 %13, label %14, label %22

14:                                               ; preds = %12
  %15 = getelementptr inbounds nuw i8, ptr %7, i64 8
  %16 = load ptr, ptr %15, align 8, !tbaa !26
  %.not9.i.i.i = icmp eq ptr %16, null
  br i1 %.not9.i.i.i, label %19, label %17

17:                                               ; preds = %14
  %18 = tail call dereferenceable_or_null(128) ptr @realloc(ptr noundef nonnull %16, i64 noundef 128) #12
  br label %Vec_PtrGrow.exit.i.i

19:                                               ; preds = %14
  %20 = tail call noalias dereferenceable_or_null(128) ptr @malloc(i64 noundef 128) #13
  br label %Vec_PtrGrow.exit.i.i

Vec_PtrGrow.exit.i.i:                             ; preds = %19, %17
  %21 = phi ptr [ %18, %17 ], [ %20, %19 ]
  store ptr %21, ptr %15, align 8, !tbaa !26
  store i32 16, ptr %7, align 8, !tbaa !25
  br label %Aig_ManFetchMemory.exit

22:                                               ; preds = %12
  %23 = shl nuw nsw i32 %.val.i, 1
  %24 = getelementptr inbounds nuw i8, ptr %7, i64 8
  %25 = load ptr, ptr %24, align 8, !tbaa !26
  %.not9.i10.i.i = icmp eq ptr %25, null
  %26 = zext nneg i32 %23 to i64
  %27 = shl nuw nsw i64 %26, 3
  br i1 %.not9.i10.i.i, label %30, label %28

28:                                               ; preds = %22
  %29 = tail call ptr @realloc(ptr noundef nonnull %25, i64 noundef %27) #12
  br label %32

30:                                               ; preds = %22
  %31 = tail call noalias ptr @malloc(i64 noundef %27) #13
  br label %32

32:                                               ; preds = %30, %28
  %33 = phi ptr [ %29, %28 ], [ %31, %30 ]
  store ptr %33, ptr %24, align 8, !tbaa !26
  store i32 %23, ptr %7, align 8, !tbaa !25
  br label %Aig_ManFetchMemory.exit

Aig_ManFetchMemory.exit:                          ; preds = %.Vec_PtrGrow.exit11_crit_edge.i.i, %Vec_PtrGrow.exit.i.i, %32
  %34 = phi ptr [ %.pre.i.i, %.Vec_PtrGrow.exit11_crit_edge.i.i ], [ %33, %32 ], [ %21, %Vec_PtrGrow.exit.i.i ]
  %35 = load i32, ptr %8, align 4, !tbaa !22
  %36 = add nsw i32 %35, 1
  store i32 %36, ptr %8, align 4, !tbaa !22
  %37 = sext i32 %35 to i64
  %38 = getelementptr inbounds ptr, ptr %34, i64 %37
  store ptr %5, ptr %38, align 8, !tbaa !27
  %39 = getelementptr inbounds nuw i8, ptr %5, i64 24
  %40 = load i64, ptr %39, align 8
  %41 = and i64 %40, -8
  %42 = or disjoint i64 %41, 3
  store i64 %42, ptr %39, align 8
  %43 = getelementptr inbounds nuw i8, ptr %0, i64 24
  %44 = load ptr, ptr %43, align 8, !tbaa !30
  %45 = getelementptr inbounds nuw i8, ptr %44, i64 4
  %46 = load i32, ptr %45, align 4, !tbaa !22
  %47 = load i32, ptr %44, align 8, !tbaa !25
  %48 = icmp eq i32 %46, %47
  br i1 %48, label %49, label %.Vec_PtrGrow.exit11_crit_edge.i

.Vec_PtrGrow.exit11_crit_edge.i:                  ; preds = %Aig_ManFetchMemory.exit
  %.phi.trans.insert.i = getelementptr inbounds nuw i8, ptr %44, i64 8
  %.pre.i = load ptr, ptr %.phi.trans.insert.i, align 8, !tbaa !26
  br label %Vec_PtrPush.exit

49:                                               ; preds = %Aig_ManFetchMemory.exit
  %50 = icmp slt i32 %46, 16
  br i1 %50, label %51, label %59

51:                                               ; preds = %49
  %52 = getelementptr inbounds nuw i8, ptr %44, i64 8
  %53 = load ptr, ptr %52, align 8, !tbaa !26
  %.not9.i.i = icmp eq ptr %53, null
  br i1 %.not9.i.i, label %56, label %54

54:                                               ; preds = %51
  %55 = tail call dereferenceable_or_null(128) ptr @realloc(ptr noundef nonnull %53, i64 noundef 128) #12
  br label %Vec_PtrGrow.exit.i

56:                                               ; preds = %51
  %57 = tail call noalias dereferenceable_or_null(128) ptr @malloc(i64 noundef 128) #13
  br label %Vec_PtrGrow.exit.i

Vec_PtrGrow.exit.i:                               ; preds = %56, %54
  %58 = phi ptr [ %55, %54 ], [ %57, %56 ]
  store ptr %58, ptr %52, align 8, !tbaa !26
  store i32 16, ptr %44, align 8, !tbaa !25
  br label %Vec_PtrPush.exit

59:                                               ; preds = %49
  %60 = shl nuw nsw i32 %46, 1
  %61 = getelementptr inbounds nuw i8, ptr %44, i64 8
  %62 = load ptr, ptr %61, align 8, !tbaa !26
  %.not9.i10.i = icmp eq ptr %62, null
  %63 = zext nneg i32 %60 to i64
  %64 = shl nuw nsw i64 %63, 3
  br i1 %.not9.i10.i, label %67, label %65

65:                                               ; preds = %59
  %66 = tail call ptr @realloc(ptr noundef nonnull %62, i64 noundef %64) #12
  br label %69

67:                                               ; preds = %59
  %68 = tail call noalias ptr @malloc(i64 noundef %64) #13
  br label %69

69:                                               ; preds = %67, %65
  %70 = phi ptr [ %66, %65 ], [ %68, %67 ]
  store ptr %70, ptr %61, align 8, !tbaa !26
  store i32 %60, ptr %44, align 8, !tbaa !25
  br label %Vec_PtrPush.exit

Vec_PtrPush.exit:                                 ; preds = %.Vec_PtrGrow.exit11_crit_edge.i, %Vec_PtrGrow.exit.i, %69
  %71 = phi ptr [ %.pre.i, %.Vec_PtrGrow.exit11_crit_edge.i ], [ %70, %69 ], [ %58, %Vec_PtrGrow.exit.i ]
  %72 = load i32, ptr %45, align 4, !tbaa !22
  %73 = add nsw i32 %72, 1
  store i32 %73, ptr %45, align 4, !tbaa !22
  %74 = sext i32 %72 to i64
  %75 = getelementptr inbounds ptr, ptr %71, i64 %74
  store ptr %5, ptr %75, align 8, !tbaa !27
  tail call void @Aig_ObjConnect(ptr noundef nonnull %0, ptr noundef nonnull %5, ptr noundef %1, ptr noundef null)
  %76 = getelementptr inbounds nuw i8, ptr %0, i64 140
  %77 = load i32, ptr %76, align 4, !tbaa !29
  %78 = add nsw i32 %77, 1
  store i32 %78, ptr %76, align 4, !tbaa !29
  ret ptr %5
}